; Function Attrs: null_pointer_is_valid sspstrong uwtable
define internal fastcc i32 @dissect_EstablishTemporaryConnectionArg_PDU(ptr noundef %0, ptr noundef %1, ptr noundef %2) unnamed_addr #0 {
  %4 = alloca %struct._asn1_ctx_t, align 8
  call void @llvm.lifetime.start.p0(i64 208, ptr nonnull %4) #12
  call void @asn1_ctx_init(ptr noundef nonnull %4, i32 noundef 0, i1 noundef zeroext true, ptr noundef %1)
  %5 = load i32, ptr @hf_camel_EstablishTemporaryConnectionArg_PDU, align 4
  %6 = load i32, ptr @camel_ver, align 4
  %7 = icmp eq i32 %6, 2
  %EstablishTemporaryConnectionArgV2_sequence.EstablishTemporaryConnectionArg_sequence.i = select i1 %7, ptr @EstablishTemporaryConnectionArgV2_sequence, ptr @EstablishTemporaryConnectionArg_sequence
  %ett_camel_EstablishTemporaryConnectionArgV2.val.i = load i32, ptr @ett_camel_EstablishTemporaryConnectionArgV2, align 4
  %ett_camel_EstablishTemporaryConnectionArg.val.i = load i32, ptr @ett_camel_EstablishTemporaryConnectionArg, align 4
  %8 = select i1 %7, i32 %ett_camel_EstablishTemporaryConnectionArgV2.val.i, i32 %ett_camel_EstablishTemporaryConnectionArg.val.i
  %9 = call i32 @dissect_ber_sequence(i1 noundef zeroext false, ptr noundef nonnull %4, ptr noundef %2, ptr noundef %0, i32 noundef 0, ptr noundef nonnull %EstablishTemporaryConnectionArgV2_sequence.EstablishTemporaryConnectionArg_sequence.i, i32 noundef %5, i32 noundef %8)
  call void @llvm.lifetime.end.p0(i64 208, ptr nonnull %4) #12
  ret i32 %9
}